; Function Attrs: mustprogress nofree norecurse nosync nounwind willreturn memory(readwrite, inaccessiblemem: none) uwtable
define noundef nonnull align 8 dereferenceable(56) ptr @_ZN6icu_7716BytesTrieBuilder5clearEv(ptr noundef nonnull returned align 8 dereferenceable(56) initializes((36, 40), (52, 56)) %0) local_unnamed_addr #13 align 2 {
  %2 = getelementptr inbounds nuw i8, ptr %0, i64 16
  %3 = load ptr, ptr %2, align 8, !tbaa !23
  %4 = getelementptr inbounds nuw i8, ptr %3, i64 56
  store i32 0, ptr %4, align 8, !tbaa !15
  %5 = load ptr, ptr %3, align 8, !tbaa !3
  store i8 0, ptr %5, align 1, !tbaa !20
  %6 = getelementptr inbounds nuw i8, ptr %0, i64 36
  store i32 0, ptr %6, align 4, !tbaa !33
  %7 = getelementptr inbounds nuw i8, ptr %0, i64 52
  store i32 0, ptr %7, align 4, !tbaa !32
  ret ptr %0
}